target datalayout = "e-m:e-p270:32:32-p271:32:32-p272:64:64-i64:64-i128:128-f80:128-n8:16:32:64-S128"
target triple = "x86_64-pc-linux-gnu"

%struct.rb_data_type_struct = type { ptr, %struct.anon, ptr, ptr, i64 }
%struct.anon = type { ptr, ptr, ptr, ptr, [1 x ptr] }
%struct.RTypedData = type { %struct.RBasic, ptr, i64, ptr }
%struct.RBasic = type { i64, i64 }

@rb_eRuntimeError = external global i64, align 8
@ossl_x509extfactory_type = internal constant %struct.rb_data_type_struct { ptr @.str.28, %struct.anon { ptr null, ptr @ossl_x509extfactory_free, ptr null, ptr null, [1 x ptr] zeroinitializer }, ptr null, ptr null, i64 33 }, align 8
@.str.25 = private unnamed_addr constant [36 x i8] c"../../../ext/openssl/ossl_x509ext.c\00", align 1
@.str.26 = private unnamed_addr constant [22 x i8] c"CTX wasn't allocated!\00", align 1
@.str.27 = private unnamed_addr constant [8 x i8] c"@config\00", align 1

; Function Attrs: nounwind sspstrong uwtable
define internal i64 @ossl_x509extfactory_alloc(i64 noundef %0) #0 {
  %2 = alloca i64, align 8
  %3 = alloca ptr, align 8
  %4 = alloca i64, align 8
  store i64 %0, ptr %2, align 8, !tbaa !11
  call void @llvm.lifetime.start.p0(i64 8, ptr %3) #17
  call void @llvm.lifetime.start.p0(i64 8, ptr %4) #17
  br label %5

5:                                                ; preds = %1
  %6 = load i64, ptr %2, align 8, !tbaa !11
  %7 = call i64 @rb_data_typed_object_wrap(i64 noundef %6, ptr noundef null, ptr noundef @ossl_x509extfactory_type)
  store i64 %7, ptr %4, align 8, !tbaa !11
  %8 = call ptr @CRYPTO_malloc(i64 noundef 64, ptr noundef @.str.25, i32 noundef 120)
  store ptr %8, ptr %3, align 8, !tbaa !17
  %9 = icmp ne ptr %8, null
  br i1 %9, label %12, label %10

10:                                               ; preds = %5
  %11 = load i64, ptr @rb_eRuntimeError, align 8, !tbaa !11
  call void (i64, ptr, ...) @ossl_raise(i64 noundef %11, ptr noundef @.str.26) #18
  unreachable

12:                                               ; preds = %5
  %13 = load ptr, ptr %3, align 8, !tbaa !17
  call void @X509V3_set_ctx(ptr noundef %13, ptr noundef null, ptr noundef null, ptr noundef null, ptr noundef null, i32 noundef 0)
  %14 = load ptr, ptr %3, align 8, !tbaa !17
  %15 = load i64, ptr %4, align 8, !tbaa !11
  %16 = inttoptr i64 %15 to ptr
  %17 = getelementptr inbounds nuw %struct.RTypedData, ptr %16, i32 0, i32 3
  store ptr %14, ptr %17, align 8, !tbaa !13
  br label %18

18:                                               ; preds = %12
  br label %19

19:                                               ; preds = %18
  %20 = load i64, ptr %4, align 8, !tbaa !11
  %21 = call i64 @rb_iv_set(i64 noundef %20, ptr noundef @.str.27, i64 noundef 4)
  %22 = load i64, ptr %4, align 8, !tbaa !11
  call void @llvm.lifetime.end.p0(i64 8, ptr %4) #17
  call void @llvm.lifetime.end.p0(i64 8, ptr %3) #17
  ret i64 %22
}