; Function Attrs: nounwind sspstrong uwtable
define internal i64 @ossl_x509extfactory_alloc(i64 noundef %0) #0 {
  %2 = tail call i64 @rb_data_typed_object_wrap(i64 noundef %0, ptr noundef null, ptr noundef nonnull @ossl_x509extfactory_type) #5
  %3 = tail call ptr @CRYPTO_malloc(i64 noundef 64, ptr noundef nonnull @.str.25, i32 noundef 120) #5
  %.not = icmp eq ptr %3, null
  br i1 %.not, label %4, label %6

4:                                                ; preds = %1
  %5 = load i64, ptr @rb_eRuntimeError, align 8, !tbaa !6
  tail call void (i64, ptr, ...) @ossl_raise(i64 noundef %5, ptr noundef nonnull @.str.26) #6
  unreachable

6:                                                ; preds = %1
  tail call void @X509V3_set_ctx(ptr noundef nonnull %3, ptr noundef null, ptr noundef null, ptr noundef null, ptr noundef null, i32 noundef 0) #5
  %7 = inttoptr i64 %2 to ptr
  %8 = getelementptr inbounds nuw i8, ptr %7, i64 32
  store ptr %3, ptr %8, align 8, !tbaa !10
  %9 = tail call i64 @rb_iv_set(i64 noundef %2, ptr noundef nonnull @.str.27, i64 noundef 4) #5
  ret i64 %2
}